; ModuleID = '56/1181.c'
source_filename = "56/1181.c"
target datalayout = "e-m:e-p270:32:32-p271:32:32-p272:64:64-i64:64-f80:128-n8:16:32:64-S128"
target triple = "x86_64-pc-linux-gnu"

@.str = private unnamed_addr constant [3 x i8] c"%d\00", align 1
@.str.1 = private unnamed_addr constant [3 x i8] c"0\0A\00", align 1
@.str.2 = private unnamed_addr constant [4 x i8] c"%d\0A\00", align 1

; Function Attrs: noinline nounwind uwtable
define dso_local i32 @main() #0 {
  %1 = alloca i32, align 4
  %2 = alloca i32, align 4
  %3 = alloca i32, align 4
  %4 = alloca i32, align 4
  %5 = alloca i32, align 4
  %6 = alloca i32, align 4
  %7 = alloca i32, align 4
  store i32 0, i32* %1, align 4
  %8 = call i32 (i8*, ...) @__isoc99_scanf(i8* getelementptr inbounds ([3 x i8], [3 x i8]* @.str, i64 0, i64 0), i32* %2)
  %9 = load i32, i32* %2, align 4
  %10 = srem i32 %9, 10
  store i32 %10, i32* %3, align 4
  %11 = load i32, i32* %2, align 4
  %12 = srem i32 %11, 100
  %13 = load i32, i32* %2, align 4
  %14 = srem i32 %13, 10
  %15 = sub nsw i32 %12, %14
  %16 = sdiv i32 %15, 10
  store i32 %16, i32* %4, align 4
  %17 = load i32, i32* %2, align 4
  %18 = srem i32 %17, 1000
  %19 = load i32, i32* %2, align 4
  %20 = srem i32 %19, 100
  %21 = sub nsw i32 %18, %20
  %22 = sdiv i32 %21, 100
  store i32 %22, i32* %5, align 4
  %23 = load i32, i32* %2, align 4
  %24 = srem i32 %23, 10000
  %25 = load i32, i32* %2, align 4
  %26 = srem i32 %25, 1000
  %27 = sub nsw i32 %24, %26
  %28 = sdiv i32 %27, 1000
  store i32 %28, i32* %6, align 4
  %29 = load i32, i32* %2, align 4
  %30 = srem i32 %29, 100000
  %31 = load i32, i32* %2, align 4
  %32 = srem i32 %31, 10000
  %33 = sub nsw i32 %30, %32
  %34 = sdiv i32 %33, 10000
  store i32 %34, i32* %7, align 4
  %35 = load i32, i32* %3, align 4
  %36 = icmp eq i32 %35, 0
  br i1 %36, label %37, label %39

37:                                               ; preds = %0
  %38 = call i32 (i8*, ...) @printf(i8* getelementptr inbounds ([3 x i8], [3 x i8]* @.str.1, i64 0, i64 0))
  br label %130

39:                                               ; preds = %0
  %40 = load i32, i32* %3, align 4
  %41 = icmp ne i32 %40, 0
  br i1 %41, label %42, label %48

42:                                               ; preds = %39
  %43 = load i32, i32* %4, align 4
  %44 = icmp eq i32 %43, 0
  br i1 %44, label %45, label %48

45:                                               ; preds = %42
  %46 = load i32, i32* %3, align 4
  %47 = call i32 (i8*, ...) @printf(i8* getelementptr inbounds ([4 x i8], [4 x i8]* @.str.2, i64 0, i64 0), i32 %46)
  br label %129

48:                                               ; preds = %42, %39
  %49 = load i32, i32* %3, align 4
  %50 = icmp ne i32 %49, 0
  br i1 %50, label %51, label %63

51:                                               ; preds = %48
  %52 = load i32, i32* %4, align 4
  %53 = icmp ne i32 %52, 0
  br i1 %53, label %54, label %63

54:                                               ; preds = %51
  %55 = load i32, i32* %5, align 4
  %56 = icmp eq i32 %55, 0
  br i1 %56, label %57, label %63

57:                                               ; preds = %54
  %58 = load i32, i32* %3, align 4
  %59 = mul nsw i32 %58, 10
  %60 = load i32, i32* %4, align 4
  %61 = add nsw i32 %59, %60
  %62 = call i32 (i8*, ...) @printf(i8* getelementptr inbounds ([3 x i8], [3 x i8]* @.str, i64 0, i64 0), i32 %61)
  br label %128

63:                                               ; preds = %54, %51, %48
  %64 = load i32, i32* %3, align 4
  %65 = icmp ne i32 %64, 0
  br i1 %65, label %66, label %84

66:                                               ; preds = %63
  %67 = load i32, i32* %4, align 4
  %68 = icmp ne i32 %67, 0
  br i1 %68, label %69, label %84

69:                                               ; preds = %66
  %70 = load i32, i32* %5, align 4
  %71 = icmp ne i32 %70, 0
  br i1 %71, label %72, label %84

72:                                               ; preds = %69
  %73 = load i32, i32* %6, align 4
  %74 = icmp eq i32 %73, 0
  br i1 %74, label %75, label %84

75:                                               ; preds = %72
  %76 = load i32, i32* %3, align 4
  %77 = mul nsw i32 %76, 100
  %78 = load i32, i32* %4, align 4
  %79 = mul nsw i32 %78, 10
  %80 = add nsw i32 %77, %79
  %81 = load i32, i32* %5, align 4
  %82 = add nsw i32 %80, %81
  %83 = call i32 (i8*, ...) @printf(i8* getelementptr inbounds ([3 x i8], [3 x i8]* @.str, i64 0, i64 0), i32 %82)
  br label %127

84:                                               ; preds = %72, %69, %66, %63
  %85 = load i32, i32* %3, align 4
  %86 = icmp ne i32 %85, 0
  br i1 %86, label %87, label %111

87:                                               ; preds = %84
  %88 = load i32, i32* %4, align 4
  %89 = icmp ne i32 %88, 0
  br i1 %89, label %90, label %111

90:                                               ; preds = %87
  %91 = load i32, i32* %5, align 4
  %92 = icmp ne i32 %91, 0
  br i1 %92, label %93, label %111

93:                                               ; preds = %90
  %94 = load i32, i32* %6, align 4
  %95 = icmp ne i32 %94, 0
  br i1 %95, label %96, label %111

96:                                               ; preds = %93
  %97 = load i32, i32* %7, align 4
  %98 = icmp eq i32 %97, 0
  br i1 %98, label %99, label %111

99:                                               ; preds = %96
  %100 = load i32, i32* %3, align 4
  %101 = mul nsw i32 %100, 1000
  %102 = load i32, i32* %4, align 4
  %103 = mul nsw i32 %102, 100
  %104 = add nsw i32 %101, %103
  %105 = load i32, i32* %5, align 4
  %106 = mul nsw i32 %105, 10
  %107 = add nsw i32 %104, %106
  %108 = load i32, i32* %6, align 4
  %109 = add nsw i32 %107, %108
  %110 = call i32 (i8*, ...) @printf(i8* getelementptr inbounds ([3 x i8], [3 x i8]* @.str, i64 0, i64 0), i32 %109)
  br label %126

111:                                              ; preds = %96, %93, %90, %87, %84
  %112 = load i32, i32* %3, align 4
  %113 = mul nsw i32 %112, 10000
  %114 = load i32, i32* %4, align 4
  %115 = mul nsw i32 %114, 1000
  %116 = add nsw i32 %113, %115
  %117 = load i32, i32* %5, align 4
  %118 = mul nsw i32 %117, 100
  %119 = add nsw i32 %116, %118
  %120 = load i32, i32* %6, align 4
  %121 = mul nsw i32 %120, 10
  %122 = add nsw i32 %119, %121
  %123 = load i32, i32* %7, align 4
  %124 = add nsw i32 %122, %123
  %125 = call i32 (i8*, ...) @printf(i8* getelementptr inbounds ([3 x i8], [3 x i8]* @.str, i64 0, i64 0), i32 %124)
  br label %126

126:                                              ; preds = %111, %99
  br label %127

127:                                              ; preds = %126, %75
  br label %128

128:                                              ; preds = %127, %57
  br label %129

129:                                              ; preds = %128, %45
  br label %130

130:                                              ; preds = %129, %37
  ret i32 0
}

declare dso_local i32 @__isoc99_scanf(i8*, ...) #1

declare dso_local i32 @printf(i8*, ...) #1


!llvm.module.flags = !{!0}
!llvm.ident = !{!1}

!0 = !{i32 1, !"wchar_size", i32 4}
!1 = !{!"clang version 10.0.0-4ubuntu1 "}
